Certificate:
    Data:
        Version: 3 (0x2)
        Serial Number: 15314800772687994490 (0xd4891a2955f21e7a)
    Signature Algorithm: sha1WithRSAEncryption
        Issuer: C=CN, ST=Beijing, O=Yunify Technologies Inc, CN=Yunify CA/emailAddress=sysop@yunify.com
        Validity
            Not Before: Nov 24 03:41:17 2017 GMT
            Not After : Nov 19 03:41:17 2037 GMT
        Subject: CN=pek3b_rtr-wrxvl0l2
        Subject Public Key Info:
            Public Key Algorithm: rsaEncryption
                Public-Key: (2048 bit)
                Modulus:
                    00:93:69:9f:9d:cc:14:07:7e:30:ce:68:e4:ac:03:
                    d3:0b:3a:05:37:91:33:25:bb:0a:e0:b5:59:f3:e1:
                    dc:f0:b3:bd:3b:0c:14:57:bf:f1:3c:79:2a:97:d9:
                    31:fe:bb:f6:b7:2d:db:89:d1:a3:73:cb:03:01:34:
                    34:40:cd:0b:05:24:ca:98:9b:9c:33:39:ac:9f:af:
                    4b:e9:91:7b:9d:0a:d1:00:e2:e4:5d:9f:1c:eb:fe:
                    d1:58:5f:9f:85:1d:f8:ea:47:fa:0b:a9:d2:2f:b9:
                    2d:a5:3b:03:bf:18:62:c0:1f:0c:2f:48:82:c0:21:
                    d3:a1:47:26:24:6e:88:e0:45:3e:09:69:71:74:9f:
                    b8:6e:d5:03:b5:83:d0:0a:b3:f1:52:36:65:d0:19:
                    f6:a7:97:28:f5:7f:8c:62:e8:c5:b4:46:e8:d5:8c:
                    30:2d:17:7f:e7:c2:47:f5:b7:22:dd:bf:34:16:92:
                    1b:79:79:cf:6a:73:b6:94:51:69:e8:06:1e:93:4c:
                    08:81:7c:1e:7f:11:07:5d:be:c7:b6:55:80:30:1c:
                    ee:83:63:4d:b8:16:2b:5d:21:8a:e5:34:06:9a:f9:
                    7f:fa:ef:82:ab:41:e9:47:f9:e7:5b:3b:37:f0:d1:
                    0a:4d:25:9f:4a:e0:e0:b2:50:d5:3c:4a:3a:a8:80:
                    79:bb
                Exponent: 65537 (0x10001)
        X509v3 extensions:
            X509v3 Basic Constraints: 
                CA:FALSE
            Netscape Comment: 
                OpenSSL Generated Certificate
            X509v3 Subject Key Identifier: 
                26:65:24:81:BC:A7:F3:B0:24:39:C7:C7:67:D0:B7:51:9E:7C:84:74
            X509v3 Authority Key Identifier: 
                keyid:EF:86:E4:4A:F5:54:B4:59:48:23:E5:98:03:7E:32:D7:D9:5F:CC:1D

    Signature Algorithm: sha1WithRSAEncryption
         38:cb:7b:c7:08:ab:bd:57:d7:20:e7:53:a8:b4:47:f5:bb:2b:
         a0:6a:91:9b:fc:f5:1d:b0:41:4f:cb:ca:bc:23:d1:5c:58:3a:
         a0:ac:9b:b3:36:80:f7:b3:e3:5d:83:34:11:47:0b:05:7c:71:
         9f:cc:0b:ce:4b:ab:81:53:ed:f9:f2:64:17:0a:b5:11:92:96:
         25:19:4e:e1:64:88:5b:de:07:50:15:27:18:42:c4:86:d3:7c:
         14:dc:c2:e7:f2:4c:45:5f:c1:a6:18:14:88:ff:48:7d:97:d1:
         6e:01:53:a3:81:b6:24:4b:30:c8:13:07:6d:db:fa:b2:89:57:
         d2:45:8c:f1:b6:6a:eb:d2:8a:64:2a:7b:41:20:ee:3e:99:e3:
         d9:83:bd:5f:24:26:6c:91:9e:cc:d1:83:b7:41:ef:3b:59:c1:
         5a:11:3f:01:95:b4:aa:9c:5e:4e:72:85:82:3d:84:52:e3:f5:
         0f:ac:bd:3d:cf:b5:7b:ba:de:ee:83:53:66:bf:03:97:93:96:
         a4:26:33:49:d2:6f:79:91:30:f6:6f:81:b1:8e:fe:73:ac:6a:
         35:80:d4:7a:30:10:5c:e0:04:7e:46:b6:b1:a9:cb:7b:7d:64:
         c5:ca:92:55:1b:29:df:bd:16:3e:c5:6e:39:8c:b3:7a:c7:c9:
         31:74:46:cf
-----BEGIN CERTIFICATE-----
MIIDkTCCAnmgAwIBAgIJANSJGilV8h56MA0GCSqGSIb3DQEBBQUAMHYxCzAJBgNV
BAYTAkNOMRAwDgYDVQQIDAdCZWlqaW5nMSAwHgYDVQQKDBdZdW5pZnkgVGVjaG5v
bG9naWVzIEluYzESMBAGA1UEAwwJWXVuaWZ5IENBMR8wHQYJKoZIhvcNAQkBFhBz
eXNvcEB5dW5pZnkuY29tMB4XDTE3MTEyNDAzNDExN1oXDTM3MTExOTAzNDExN1ow
HTEbMBkGA1UEAwwScGVrM2JfcnRyLXdyeHZsMGwyMIIBIjANBgkqhkiG9w0BAQEF
AAOCAQ8AMIIBCgKCAQEAk2mfncwUB34wzmjkrAPTCzoFN5EzJbsK4LVZ8+Hc8LO9
OwwUV7/xPHkql9kx/rv2ty3bidGjc8sDATQ0QM0LBSTKmJucMzmsn69L6ZF7nQrR
AOLkXZ8c6/7RWF+fhR346kf6C6nSL7ktpTsDvxhiwB8ML0iCwCHToUcmJG6I4EU+
CWlxdJ+4btUDtYPQCrPxUjZl0Bn2p5co9X+MYujFtEbo1YwwLRd/58JH9bci3b80
FpIbeXnPanO2lFFp6AYek0wIgXwefxEHXb7HtlWAMBzug2NNuBYrXSGK5TQGmvl/
+u+Cq0HpR/nnWzs38NEKTSWfSuDgslDVPEo6qIB5uwIDAQABo3sweTAJBgNVHRME
AjAAMCwGCWCGSAGG+EIBDQQfFh1PcGVuU1NMIEdlbmVyYXRlZCBDZXJ0aWZpY2F0
ZTAdBgNVHQ4EFgQUJmUkgbyn87AkOcfHZ9C3UZ58hHQwHwYDVR0jBBgwFoAU74bk
SvVUtFlII+WYA34y19lfzB0wDQYJKoZIhvcNAQEFBQADggEBADjLe8cIq71X1yDn
U6i0R/W7K6BqkZv89R2wQU/Lyrwj0VxYOqCsm7M2gPez412DNBFHCwV8cZ/MC85L
q4FT7fnyZBcKtRGSliUZTuFkiFveB1AVJxhCxIbTfBTcwufyTEVfwaYYFIj/SH2X
0W4BU6OBtiRLMMgTB23b+rKJV9JFjPG2auvSimQqe0Eg7j6Z49mDvV8kJmyRnszR
g7dB7ztZwVoRPwGVtKqcXk5yhYI9hFLj9Q+svT3PtXu63u6DU2a/A5eTlqQmM0nS
b3mRMPZvgbGO/nOsajWA1HowEFzgBH5GtrGpy3t9ZMXKklUbKd+9Fj7FbjmMs3rH
yTF0Rs8=
-----END CERTIFICATE-----
